; Function Attrs: nounwind sspstrong uwtable
define internal range(i64 0, 21) i64 @ossl_pkcs7_get_detached(i64 noundef %0) #0 {
  %2 = tail call ptr @rb_check_typeddata(i64 noundef %0, ptr noundef nonnull @ossl_pkcs7_type) #5
  %.not = icmp eq ptr %2, null
  br i1 %.not, label %3, label %5

3:                                                ; preds = %1
  %4 = load i64, ptr @rb_eRuntimeError, align 8, !tbaa !6
  tail call void (i64, ptr, ...) @ossl_raise(i64 noundef %4, ptr noundef nonnull @.str.1) #6
  unreachable

5:                                                ; preds = %1
  %6 = tail call i64 @PKCS7_ctrl(ptr noundef nonnull %2, i32 noundef 2, i64 noundef 0, ptr noundef null) #5
  %.not2 = icmp eq i64 %6, 0
  %7 = select i1 %.not2, i64 0, i64 20
  ret i64 %7
}